target datalayout = "e-m:e-p270:32:32-p271:32:32-p272:64:64-i64:64-i128:128-f80:128-n8:16:32:64-S128"
target triple = "x86_64-pc-linux-gnu"

%struct.H5F_t = type { ptr, ptr, ptr, ptr, i32, ptr, i8, i8, ptr, i32 }
%struct.H5F_shared_t = type { ptr, ptr, ptr, i8, i32, i32, %struct.H5F_mtab_t, ptr, i8, i8, i64, i32, i32, i64, i64, ptr, ptr, %struct.H5AC_cache_config_t, %struct.H5AC_cache_image_config_t, i8, i8, ptr, i64, i32, i8, i64, i64, double, i64, i64, i64, i32, i32, i32, i8, i32, ptr, ptr, ptr, ptr, i8, i8, i8, i64, i64, ptr, ptr, i32, i64, i8, i32, i8, i64, i8, [13 x i32], [13 x i64], [13 x ptr], i8, i64, i64, [7 x i32], [7 x i32], %struct.H5F_blk_aggr_t, %struct.H5F_blk_aggr_t, i64, i64, %struct.H5F_meta_accum_t, i32, i32, [30 x ptr], %struct.H5F_object_flush_t, i8, ptr }
%struct.H5F_mtab_t = type { i32, i32, ptr }
%struct.H5AC_cache_config_t = type { i32, i8, i8, i8, [1025 x i8], i8, i8, i64, double, i64, i64, i64, i32, double, double, i8, i64, i32, double, double, i32, double, double, i8, i64, i32, i8, double, i64, i32 }
%struct.H5AC_cache_image_config_t = type { i32, i8, i8, i32 }
%struct.H5F_blk_aggr_t = type { i64, i64, i64, i64, i64 }
%struct.H5F_meta_accum_t = type { ptr, i64, i64, i64, i64, i64, i8 }
%struct.H5F_object_flush_t = type { ptr, ptr }

@.str = private unnamed_addr constant [102 x i8] c"generated/home/dtcxzyw/WorkSpace/Projects/compilers/llvm-opt-benchmark/bench/hdf5/hdf5/src/H5MFaggr.c\00", align 1
@H5E_RESOURCE_g = external global i64, align 8
@H5E_CANTGET_g = external global i64, align 8
@.str.3 = private unnamed_addr constant [18 x i8] c"Unable to get eoa\00", align 1
@.str.5 = private unnamed_addr constant [38 x i8] c"can't query metadata aggregator stats\00", align 1
@.str.6 = private unnamed_addr constant [40 x i8] c"can't query small data aggregator stats\00", align 1
@H5E_CANTFREE_g = external global i64, align 8
@__func__.H5MF__aggrs_try_shrink_eoa = private unnamed_addr constant [27 x i8] c"H5MF__aggrs_try_shrink_eoa\00", align 1
@H5E_CANTSHRINK_g = external global i64, align 8
@.str.9 = private unnamed_addr constant [30 x i8] c"can't check for shrinking eoa\00", align 1
@.str.12 = private unnamed_addr constant [29 x i8] c"can't free aggregation block\00", align 1
@__func__.H5MF__aggr_can_shrink_eoa = private unnamed_addr constant [26 x i8] c"H5MF__aggr_can_shrink_eoa\00", align 1
@__func__.H5MF__aggr_free = private unnamed_addr constant [16 x i8] c"H5MF__aggr_free\00", align 1

; Function Attrs: nounwind uwtable
define internal i32 @H5MF__aggr_free(ptr noundef %0, i32 noundef %1, ptr noundef %2) #0 {
  %4 = alloca ptr, align 8
  %5 = alloca i32, align 4
  %6 = alloca ptr, align 8
  %7 = alloca i32, align 4
  %8 = alloca i8, align 1
  store ptr %0, ptr %4, align 8
  store i32 %1, ptr %5, align 4
  store ptr %2, ptr %6, align 8
  store i32 0, ptr %7, align 4
  store i8 0, ptr %8, align 1
  %9 = load ptr, ptr %4, align 8
  %10 = load i32, ptr %5, align 4
  %11 = load ptr, ptr %6, align 8
  %12 = getelementptr inbounds %struct.H5F_blk_aggr_t, ptr %11, i32 0, i32 4
  %13 = load i64, ptr %12, align 8
  %14 = load ptr, ptr %6, align 8
  %15 = getelementptr inbounds %struct.H5F_blk_aggr_t, ptr %14, i32 0, i32 3
  %16 = load i64, ptr %15, align 8
  %17 = call i32 @H5F__free(ptr noundef %9, i32 noundef %10, i64 noundef %13, i64 noundef %16)
  %18 = icmp slt i32 %17, 0
  br i1 %18, label %19, label %34

19:                                               ; preds = %3
  br label %20

20:                                               ; preds = %19
  br label %21

21:                                               ; preds = %20
  br label %22

22:                                               ; preds = %21
  %23 = load i64, ptr @H5E_RESOURCE_g, align 8
  %24 = load i64, ptr @H5E_CANTFREE_g, align 8
  %25 = call i32 (ptr, ptr, i32, i64, i64, ptr, ...) @H5E_printf_stack(ptr noundef @.str, ptr noundef @__func__.H5MF__aggr_free, i32 noundef 863, i64 noundef %23, i64 noundef %24, ptr noundef @.str.12)
  br label %26

26:                                               ; preds = %22
  store i8 1, ptr %8, align 1
  %27 = load i8, ptr %8, align 1
  %28 = trunc i8 %27 to i1
  %29 = zext i1 %28 to i8
  store i8 %29, ptr %8, align 1
  br label %30

30:                                               ; preds = %26
  br label %31

31:                                               ; preds = %30
  store i32 -1, ptr %7, align 4
  br label %41

32:                                               ; No predecessors!
  br label %33

33:                                               ; preds = %32
  br label %34

34:                                               ; preds = %33, %3
  %35 = load ptr, ptr %6, align 8
  %36 = getelementptr inbounds %struct.H5F_blk_aggr_t, ptr %35, i32 0, i32 2
  store i64 0, ptr %36, align 8
  %37 = load ptr, ptr %6, align 8
  %38 = getelementptr inbounds %struct.H5F_blk_aggr_t, ptr %37, i32 0, i32 4
  store i64 -1, ptr %38, align 8
  %39 = load ptr, ptr %6, align 8
  %40 = getelementptr inbounds %struct.H5F_blk_aggr_t, ptr %39, i32 0, i32 3
  store i64 0, ptr %40, align 8
  br label %41

41:                                               ; preds = %34, %31
  %42 = load i32, ptr %7, align 4
  ret i32 %42
}

; Function Attrs: nounwind uwtable
define internal i32 @H5MF__aggr_can_shrink_eoa(ptr noundef %0, i32 noundef %1, ptr noundef %2) #0 {
  %4 = alloca ptr, align 8
  %5 = alloca i32, align 4
  %6 = alloca ptr, align 8
  %7 = alloca i64, align 8
  %8 = alloca i32, align 4
  %9 = alloca i8, align 1
  store ptr %0, ptr %4, align 8
  store i32 %1, ptr %5, align 4
  store ptr %2, ptr %6, align 8
  store i64 -1, ptr %7, align 8
  store i32 0, ptr %8, align 4
  store i8 0, ptr %9, align 1
  %10 = load ptr, ptr %4, align 8
  %11 = load i32, ptr %5, align 4
  %12 = call i64 @H5F_get_eoa(ptr noundef %10, i32 noundef %11)
  store i64 %12, ptr %7, align 8
  %13 = icmp eq i64 -1, %12
  br i1 %13, label %14, label %29

14:                                               ; preds = %3
  br label %15

15:                                               ; preds = %14
  br label %16

16:                                               ; preds = %15
  br label %17

17:                                               ; preds = %16
  %18 = load i64, ptr @H5E_RESOURCE_g, align 8
  %19 = load i64, ptr @H5E_CANTGET_g, align 8
  %20 = call i32 (ptr, ptr, i32, i64, i64, ptr, ...) @H5E_printf_stack(ptr noundef @.str, ptr noundef @__func__.H5MF__aggr_can_shrink_eoa, i32 noundef 822, i64 noundef %18, i64 noundef %19, ptr noundef @.str.3)
  br label %21

21:                                               ; preds = %17
  store i8 1, ptr %9, align 1
  %22 = load i8, ptr %9, align 1
  %23 = trunc i8 %22 to i1
  %24 = zext i1 %23 to i8
  store i8 %24, ptr %9, align 1
  br label %25

25:                                               ; preds = %21
  br label %26

26:                                               ; preds = %25
  store i32 -1, ptr %8, align 4
  br label %56

27:                                               ; No predecessors!
  br label %28

28:                                               ; preds = %27
  br label %29

29:                                               ; preds = %28, %3
  %30 = load ptr, ptr %6, align 8
  %31 = getelementptr inbounds %struct.H5F_blk_aggr_t, ptr %30, i32 0, i32 3
  %32 = load i64, ptr %31, align 8
  %33 = icmp ugt i64 %32, 0
  br i1 %33, label %34, label %55

34:                                               ; preds = %29
  %35 = load ptr, ptr %6, align 8
  %36 = getelementptr inbounds %struct.H5F_blk_aggr_t, ptr %35, i32 0, i32 4
  %37 = load i64, ptr %36, align 8
  %38 = icmp ne i64 %37, -1
  br i1 %38, label %39, label %55

39:                                               ; preds = %34
  %40 = load i64, ptr %7, align 8
  %41 = icmp ne i64 %40, -1
  br i1 %41, label %42, label %52

42:                                               ; preds = %39
  %43 = load i64, ptr %7, align 8
  %44 = load ptr, ptr %6, align 8
  %45 = getelementptr inbounds %struct.H5F_blk_aggr_t, ptr %44, i32 0, i32 4
  %46 = load i64, ptr %45, align 8
  %47 = load ptr, ptr %6, align 8
  %48 = getelementptr inbounds %struct.H5F_blk_aggr_t, ptr %47, i32 0, i32 3
  %49 = load i64, ptr %48, align 8
  %50 = add i64 %46, %49
  %51 = icmp eq i64 %43, %50
  br label %52

52:                                               ; preds = %42, %39
  %53 = phi i1 [ false, %39 ], [ %51, %42 ]
  %54 = zext i1 %53 to i32
  store i32 %54, ptr %8, align 4
  br label %55

55:                                               ; preds = %52, %34, %29
  br label %56

56:                                               ; preds = %55, %26
  %57 = load i32, ptr %8, align 4
  ret i32 %57
}

; Function Attrs: nounwind uwtable
define i32 @H5MF__aggrs_try_shrink_eoa(ptr noundef %0) #0 {
  %2 = alloca ptr, align 8
  %3 = alloca i32, align 4
  %4 = alloca i32, align 4
  %5 = alloca i32, align 4
  %6 = alloca i8, align 1
  store ptr %0, ptr %2, align 8
  store i32 -1, ptr %5, align 4
  store i8 0, ptr %6, align 1
  %7 = load ptr, ptr %2, align 8
  %8 = load ptr, ptr %2, align 8
  %9 = getelementptr inbounds %struct.H5F_t, ptr %8, i32 0, i32 2
  %10 = load ptr, ptr %9, align 8
  %11 = getelementptr inbounds %struct.H5F_shared_t, ptr %10, i32 0, i32 62
  %12 = call i32 @H5MF__aggr_can_shrink_eoa(ptr noundef %7, i32 noundef 0, ptr noundef %11)
  store i32 %12, ptr %3, align 4
  %13 = icmp slt i32 %12, 0
  br i1 %13, label %14, label %29

14:                                               ; preds = %1
  br label %15

15:                                               ; preds = %14
  br label %16

16:                                               ; preds = %15
  br label %17

17:                                               ; preds = %16
  %18 = load i64, ptr @H5E_RESOURCE_g, align 8
  %19 = load i64, ptr @H5E_CANTGET_g, align 8
  %20 = call i32 (ptr, ptr, i32, i64, i64, ptr, ...) @H5E_printf_stack(ptr noundef @.str, ptr noundef @__func__.H5MF__aggrs_try_shrink_eoa, i32 noundef 898, i64 noundef %18, i64 noundef %19, ptr noundef @.str.5)
  br label %21

21:                                               ; preds = %17
  store i8 1, ptr %6, align 1
  %22 = load i8, ptr %6, align 1
  %23 = trunc i8 %22 to i1
  %24 = zext i1 %23 to i8
  store i8 %24, ptr %6, align 1
  br label %25

25:                                               ; preds = %21
  br label %26

26:                                               ; preds = %25
  store i32 -1, ptr %5, align 4
  br label %115

27:                                               ; No predecessors!
  br label %28

28:                                               ; preds = %27
  br label %29

29:                                               ; preds = %28, %1
  %30 = load i32, ptr %3, align 4
  %31 = icmp sgt i32 %30, 0
  br i1 %31, label %32, label %56

32:                                               ; preds = %29
  %33 = load ptr, ptr %2, align 8
  %34 = load ptr, ptr %2, align 8
  %35 = getelementptr inbounds %struct.H5F_t, ptr %34, i32 0, i32 2
  %36 = load ptr, ptr %35, align 8
  %37 = getelementptr inbounds %struct.H5F_shared_t, ptr %36, i32 0, i32 62
  %38 = call i32 @H5MF__aggr_free(ptr noundef %33, i32 noundef 0, ptr noundef %37)
  %39 = icmp slt i32 %38, 0
  br i1 %39, label %40, label %55

40:                                               ; preds = %32
  br label %41

41:                                               ; preds = %40
  br label %42

42:                                               ; preds = %41
  br label %43

43:                                               ; preds = %42
  %44 = load i64, ptr @H5E_RESOURCE_g, align 8
  %45 = load i64, ptr @H5E_CANTSHRINK_g, align 8
  %46 = call i32 (ptr, ptr, i32, i64, i64, ptr, ...) @H5E_printf_stack(ptr noundef @.str, ptr noundef @__func__.H5MF__aggrs_try_shrink_eoa, i32 noundef 901, i64 noundef %44, i64 noundef %45, ptr noundef @.str.9)
  br label %47

47:                                               ; preds = %43
  store i8 1, ptr %6, align 1
  %48 = load i8, ptr %6, align 1
  %49 = trunc i8 %48 to i1
  %50 = zext i1 %49 to i8
  store i8 %50, ptr %6, align 1
  br label %51

51:                                               ; preds = %47
  br label %52

52:                                               ; preds = %51
  store i32 -1, ptr %5, align 4
  br label %115

53:                                               ; No predecessors!
  br label %54

54:                                               ; preds = %53
  br label %55

55:                                               ; preds = %54, %32
  br label %56

56:                                               ; preds = %55, %29
  %57 = load ptr, ptr %2, align 8
  %58 = load ptr, ptr %2, align 8
  %59 = getelementptr inbounds %struct.H5F_t, ptr %58, i32 0, i32 2
  %60 = load ptr, ptr %59, align 8
  %61 = getelementptr inbounds %struct.H5F_shared_t, ptr %60, i32 0, i32 63
  %62 = call i32 @H5MF__aggr_can_shrink_eoa(ptr noundef %57, i32 noundef 3, ptr noundef %61)
  store i32 %62, ptr %4, align 4
  %63 = icmp slt i32 %62, 0
  br i1 %63, label %64, label %79

64:                                               ; preds = %56
  br label %65

65:                                               ; preds = %64
  br label %66

66:                                               ; preds = %65
  br label %67

67:                                               ; preds = %66
  %68 = load i64, ptr @H5E_RESOURCE_g, align 8
  %69 = load i64, ptr @H5E_CANTGET_g, align 8
  %70 = call i32 (ptr, ptr, i32, i64, i64, ptr, ...) @H5E_printf_stack(ptr noundef @.str, ptr noundef @__func__.H5MF__aggrs_try_shrink_eoa, i32 noundef 904, i64 noundef %68, i64 noundef %69, ptr noundef @.str.6)
  br label %71

71:                                               ; preds = %67
  store i8 1, ptr %6, align 1
  %72 = load i8, ptr %6, align 1
  %73 = trunc i8 %72 to i1
  %74 = zext i1 %73 to i8
  store i8 %74, ptr %6, align 1
  br label %75

75:                                               ; preds = %71
  br label %76

76:                                               ; preds = %75
  store i32 -1, ptr %5, align 4
  br label %115

77:                                               ; No predecessors!
  br label %78

78:                                               ; preds = %77
  br label %79

79:                                               ; preds = %78, %56
  %80 = load i32, ptr %4, align 4
  %81 = icmp sgt i32 %80, 0
  br i1 %81, label %82, label %106

82:                                               ; preds = %79
  %83 = load ptr, ptr %2, align 8
  %84 = load ptr, ptr %2, align 8
  %85 = getelementptr inbounds %struct.H5F_t, ptr %84, i32 0, i32 2
  %86 = load ptr, ptr %85, align 8
  %87 = getelementptr inbounds %struct.H5F_shared_t, ptr %86, i32 0, i32 63
  %88 = call i32 @H5MF__aggr_free(ptr noundef %83, i32 noundef 3, ptr noundef %87)
  %89 = icmp slt i32 %88, 0
  br i1 %89, label %90, label %105

90:                                               ; preds = %82
  br label %91

91:                                               ; preds = %90
  br label %92

92:                                               ; preds = %91
  br label %93

93:                                               ; preds = %92
  %94 = load i64, ptr @H5E_RESOURCE_g, align 8
  %95 = load i64, ptr @H5E_CANTSHRINK_g, align 8
  %96 = call i32 (ptr, ptr, i32, i64, i64, ptr, ...) @H5E_printf_stack(ptr noundef @.str, ptr noundef @__func__.H5MF__aggrs_try_shrink_eoa, i32 noundef 907, i64 noundef %94, i64 noundef %95, ptr noundef @.str.9)
  br label %97

97:                                               ; preds = %93
  store i8 1, ptr %6, align 1
  %98 = load i8, ptr %6, align 1
  %99 = trunc i8 %98 to i1
  %100 = zext i1 %99 to i8
  store i8 %100, ptr %6, align 1
  br label %101

101:                                              ; preds = %97
  br label %102

102:                                              ; preds = %101
  store i32 -1, ptr %5, align 4
  br label %115

103:                                              ; No predecessors!
  br label %104

104:                                              ; preds = %103
  br label %105

105:                                              ; preds = %104, %82
  br label %106

106:                                              ; preds = %105, %79
  %107 = load i32, ptr %3, align 4
  %108 = icmp ne i32 %107, 0
  br i1 %108, label %112, label %109

109:                                              ; preds = %106
  %110 = load i32, ptr %4, align 4
  %111 = icmp ne i32 %110, 0
  br label %112

112:                                              ; preds = %109, %106
  %113 = phi i1 [ true, %106 ], [ %111, %109 ]
  %114 = zext i1 %113 to i32
  store i32 %114, ptr %5, align 4
  br label %115

115:                                              ; preds = %112, %102, %76, %52, %26
  %116 = load i32, ptr %5, align 4
  ret i32 %116
}