; Function Attrs: nounwind uwtable
define range(i32 -1, 2) i32 @H5MF__aggrs_try_shrink_eoa(ptr noundef %0) local_unnamed_addr #0 {
  %2 = getelementptr inbounds i8, ptr %0, i64 16
  %3 = load ptr, ptr %2, align 8
  %4 = tail call i64 @H5F_get_eoa(ptr noundef %0, i32 noundef 0) #6
  %5 = icmp eq i64 %4, -1
  br i1 %5, label %13, label %6

6:                                                ; preds = %1
  %7 = getelementptr inbounds i8, ptr %3, i64 1928
  %8 = load i64, ptr %7, align 8
  %.not.i = icmp eq i64 %8, 0
  br i1 %.not.i, label %.thread, label %9

9:                                                ; preds = %6
  %10 = getelementptr inbounds i8, ptr %3, i64 1936
  %11 = load i64, ptr %10, align 8
  %.not12.i = icmp ne i64 %11, -1
  %12 = add i64 %11, %8
  %.not = icmp eq i64 %4, %12
  %or.cond = and i1 %.not12.i, %.not
  br i1 %or.cond, label %20, label %.thread

13:                                               ; preds = %1
  %14 = load i64, ptr @H5E_RESOURCE_g, align 8
  %15 = load i64, ptr @H5E_CANTGET_g, align 8
  %16 = tail call i32 (ptr, ptr, i32, i64, i64, ptr, ...) @H5E_printf_stack(ptr noundef nonnull @.str, ptr noundef nonnull @__func__.H5MF__aggr_can_shrink_eoa, i32 noundef 822, i64 noundef %14, i64 noundef %15, ptr noundef nonnull @.str.3) #6
  %17 = load i64, ptr @H5E_RESOURCE_g, align 8
  %18 = load i64, ptr @H5E_CANTGET_g, align 8
  %19 = tail call i32 (ptr, ptr, i32, i64, i64, ptr, ...) @H5E_printf_stack(ptr noundef nonnull @.str, ptr noundef nonnull @__func__.H5MF__aggrs_try_shrink_eoa, i32 noundef 898, i64 noundef %17, i64 noundef %18, ptr noundef nonnull @.str.5) #6
  br label %70

20:                                               ; preds = %9
  %21 = load ptr, ptr %2, align 8
  %22 = getelementptr inbounds i8, ptr %21, i64 1936
  %23 = load i64, ptr %22, align 8
  %24 = getelementptr inbounds i8, ptr %21, i64 1928
  %25 = load i64, ptr %24, align 8
  %26 = tail call i32 @H5F__free(ptr noundef nonnull %0, i32 noundef 0, i64 noundef %23, i64 noundef %25) #6
  %27 = icmp slt i32 %26, 0
  br i1 %27, label %29, label %H5MF__aggr_free.exit

H5MF__aggr_free.exit:                             ; preds = %20
  %28 = getelementptr inbounds i8, ptr %21, i64 1920
  store i64 0, ptr %28, align 8
  store i64 -1, ptr %22, align 8
  store i64 0, ptr %24, align 8
  br label %.thread

29:                                               ; preds = %20
  %30 = load i64, ptr @H5E_RESOURCE_g, align 8
  %31 = load i64, ptr @H5E_CANTFREE_g, align 8
  %32 = tail call i32 (ptr, ptr, i32, i64, i64, ptr, ...) @H5E_printf_stack(ptr noundef nonnull @.str, ptr noundef nonnull @__func__.H5MF__aggr_free, i32 noundef 863, i64 noundef %30, i64 noundef %31, ptr noundef nonnull @.str.12) #6
  %33 = load i64, ptr @H5E_RESOURCE_g, align 8
  %34 = load i64, ptr @H5E_CANTSHRINK_g, align 8
  %35 = tail call i32 (ptr, ptr, i32, i64, i64, ptr, ...) @H5E_printf_stack(ptr noundef nonnull @.str, ptr noundef nonnull @__func__.H5MF__aggrs_try_shrink_eoa, i32 noundef 901, i64 noundef %33, i64 noundef %34, ptr noundef nonnull @.str.9) #6
  br label %70

.thread:                                          ; preds = %9, %6, %H5MF__aggr_free.exit
  %.0.i.ph30 = phi i32 [ 1, %H5MF__aggr_free.exit ], [ 0, %6 ], [ 0, %9 ]
  %36 = load ptr, ptr %2, align 8
  %37 = tail call i64 @H5F_get_eoa(ptr noundef nonnull %0, i32 noundef 3) #6
  %38 = icmp eq i64 %37, -1
  br i1 %38, label %46, label %39

39:                                               ; preds = %.thread
  %40 = getelementptr inbounds i8, ptr %36, i64 1968
  %41 = load i64, ptr %40, align 8
  %.not.i20 = icmp eq i64 %41, 0
  br i1 %.not.i20, label %.thread35, label %42

42:                                               ; preds = %39
  %43 = getelementptr inbounds i8, ptr %36, i64 1976
  %44 = load i64, ptr %43, align 8
  %.not12.i21 = icmp ne i64 %44, -1
  %45 = add i64 %44, %41
  %.not40 = icmp eq i64 %37, %45
  %or.cond41 = and i1 %.not12.i21, %.not40
  br i1 %or.cond41, label %53, label %.thread35

46:                                               ; preds = %.thread
  %47 = load i64, ptr @H5E_RESOURCE_g, align 8
  %48 = load i64, ptr @H5E_CANTGET_g, align 8
  %49 = tail call i32 (ptr, ptr, i32, i64, i64, ptr, ...) @H5E_printf_stack(ptr noundef nonnull @.str, ptr noundef nonnull @__func__.H5MF__aggr_can_shrink_eoa, i32 noundef 822, i64 noundef %47, i64 noundef %48, ptr noundef nonnull @.str.3) #6
  %50 = load i64, ptr @H5E_RESOURCE_g, align 8
  %51 = load i64, ptr @H5E_CANTGET_g, align 8
  %52 = tail call i32 (ptr, ptr, i32, i64, i64, ptr, ...) @H5E_printf_stack(ptr noundef nonnull @.str, ptr noundef nonnull @__func__.H5MF__aggrs_try_shrink_eoa, i32 noundef 904, i64 noundef %50, i64 noundef %51, ptr noundef nonnull @.str.6) #6
  br label %70

53:                                               ; preds = %42
  %54 = load ptr, ptr %2, align 8
  %55 = getelementptr inbounds i8, ptr %54, i64 1976
  %56 = load i64, ptr %55, align 8
  %57 = getelementptr inbounds i8, ptr %54, i64 1968
  %58 = load i64, ptr %57, align 8
  %59 = tail call i32 @H5F__free(ptr noundef nonnull %0, i32 noundef 3, i64 noundef %56, i64 noundef %58) #6
  %60 = icmp slt i32 %59, 0
  br i1 %60, label %62, label %H5MF__aggr_free.exit25

H5MF__aggr_free.exit25:                           ; preds = %53
  %61 = getelementptr inbounds i8, ptr %54, i64 1960
  store i64 0, ptr %61, align 8
  store i64 -1, ptr %55, align 8
  store i64 0, ptr %57, align 8
  br label %.thread35

62:                                               ; preds = %53
  %63 = load i64, ptr @H5E_RESOURCE_g, align 8
  %64 = load i64, ptr @H5E_CANTFREE_g, align 8
  %65 = tail call i32 (ptr, ptr, i32, i64, i64, ptr, ...) @H5E_printf_stack(ptr noundef nonnull @.str, ptr noundef nonnull @__func__.H5MF__aggr_free, i32 noundef 863, i64 noundef %63, i64 noundef %64, ptr noundef nonnull @.str.12) #6
  %66 = load i64, ptr @H5E_RESOURCE_g, align 8
  %67 = load i64, ptr @H5E_CANTSHRINK_g, align 8
  %68 = tail call i32 (ptr, ptr, i32, i64, i64, ptr, ...) @H5E_printf_stack(ptr noundef nonnull @.str, ptr noundef nonnull @__func__.H5MF__aggrs_try_shrink_eoa, i32 noundef 907, i64 noundef %66, i64 noundef %67, ptr noundef nonnull @.str.9) #6
  br label %70

.thread35:                                        ; preds = %42, %39, %H5MF__aggr_free.exit25
  %.0.i22.ph38 = phi i32 [ 1, %H5MF__aggr_free.exit25 ], [ 0, %39 ], [ 0, %42 ]
  %69 = or i32 %.0.i22.ph38, %.0.i.ph30
  br label %70

70:                                               ; preds = %.thread35, %62, %46, %29, %13
  %.0 = phi i32 [ -1, %13 ], [ -1, %29 ], [ -1, %46 ], [ -1, %62 ], [ %69, %.thread35 ]
  ret i32 %.0
}